target datalayout = "e-m:e-p270:32:32-p271:32:32-p272:64:64-i64:64-i128:128-f80:128-n8:16:32:64-S128"
target triple = "x86_64-pc-linux-gnu"

%struct.H5CX_node_t = type { %struct.H5CX_t, ptr }
%struct.H5CX_t = type { i64, ptr, i64, ptr, i64, ptr, i64, ptr, i64, ptr, i64, ptr, i64, i32, i64, i8, ptr, i8, ptr, i8, i32, i8, [3 x double], i8, i64, i8, i32, i8, %struct.H5Z_cb_t, i8, ptr, i8, %struct.H5T_vlen_alloc_info_t, i8, %struct.H5T_conv_cb_t, i8, i32, i8, i8, i8, i32, i8, i8, i32, i8, i8, i32, i8, i32, i8, i64, i8, i8, i8, i8, i8, ptr, i8, ptr, i8, i32, i8, i32, i8, %struct.H5VL_connector_prop_t, i8, ptr, i8 }
%struct.H5Z_cb_t = type { ptr, ptr }
%struct.H5T_vlen_alloc_info_t = type { ptr, ptr, ptr, ptr }
%struct.H5T_conv_cb_t = type { ptr, ptr }
%struct.H5VL_connector_prop_t = type { ptr, ptr }

@H5_libinit_g = external global i8, align 1
@H5_libterm_g = external global i8, align 1
@.str = private unnamed_addr constant [98 x i8] c"generated/home/dtcxzyw/WorkSpace/Projects/compilers/llvm-opt-benchmark/bench/hdf5/hdf5/src/H5ES.c\00", align 1
@H5E_FUNC_g = external global i64, align 8
@H5E_CANTINIT_g = external global i64, align 8
@.str.1 = private unnamed_addr constant [30 x i8] c"library initialization failed\00", align 1
@H5ES_init_g = external global i8, align 1
@.str.2 = private unnamed_addr constant [32 x i8] c"interface initialization failed\00", align 1
@H5E_CANTSET_g = external global i64, align 8
@.str.3 = private unnamed_addr constant [22 x i8] c"can't set API context\00", align 1
@H5E_EVENTSET_g = external global i64, align 8
@__func__.H5ESinsert_request = private unnamed_addr constant [19 x i8] c"H5ESinsert_request\00", align 1
@H5E_ARGS_g = external global i64, align 8
@H5E_BADTYPE_g = external global i64, align 8
@.str.6 = private unnamed_addr constant [29 x i8] c"invalid event set identifier\00", align 1
@H5E_BADVALUE_g = external global i64, align 8
@.str.7 = private unnamed_addr constant [21 x i8] c"NULL request pointer\00", align 1
@.str.8 = private unnamed_addr constant [23 x i8] c"not a VOL connector ID\00", align 1
@H5E_CANTINSERT_g = external global i64, align 8
@.str.9 = private unnamed_addr constant [36 x i8] c"can't insert request into event set\00", align 1

; Function Attrs: nounwind uwtable
define i32 @H5ESinsert_request(i64 noundef %0, i64 noundef %1, ptr noundef %2) #0 {
  %4 = alloca i64, align 8
  %5 = alloca i64, align 8
  %6 = alloca ptr, align 8
  %7 = alloca ptr, align 8
  %8 = alloca ptr, align 8
  %9 = alloca i32, align 4
  %10 = alloca %struct.H5CX_node_t, align 8
  %11 = alloca i8, align 1
  %12 = alloca i8, align 1
  store i64 %0, ptr %4, align 8, !tbaa !3
  store i64 %1, ptr %5, align 8, !tbaa !3
  store ptr %2, ptr %6, align 8, !tbaa !14
  call void @llvm.lifetime.start.p0(i64 8, ptr %7) #5
  call void @llvm.lifetime.start.p0(i64 8, ptr %8) #5
  store ptr null, ptr %8, align 8, !tbaa !15
  call void @llvm.lifetime.start.p0(i64 4, ptr %9) #5
  store i32 0, ptr %9, align 4, !tbaa !17
  call void @llvm.lifetime.start.p0(i64 480, ptr %10) #5
  call void @llvm.memset.p0.i64(ptr align 8 %10, i8 0, i64 480, i1 false)
  call void @llvm.lifetime.start.p0(i64 1, ptr %11) #5
  store i8 0, ptr %11, align 1, !tbaa !7
  call void @llvm.lifetime.start.p0(i64 1, ptr %12) #5
  store i8 0, ptr %12, align 1, !tbaa !7
  br label %13

13:                                               ; preds = %3
  %14 = load i8, ptr @H5_libinit_g, align 1, !tbaa !7, !range !9, !noundef !10
  %15 = trunc i8 %14 to i1
  br i1 %15, label %20, label %16

16:                                               ; preds = %13
  %17 = load i8, ptr @H5_libterm_g, align 1, !tbaa !7, !range !9, !noundef !10
  %18 = trunc i8 %17 to i1
  %19 = xor i1 %18, true
  br label %20

20:                                               ; preds = %16, %13
  %21 = phi i1 [ false, %13 ], [ %19, %16 ]
  %22 = xor i1 %21, true
  %23 = xor i1 %22, true
  %24 = zext i1 %23 to i32
  %25 = sext i32 %24 to i64
  %26 = call i64 @llvm.expect.i64(i64 %25, i64 0)
  %27 = icmp ne i64 %26, 0
  br i1 %27, label %28, label %57

28:                                               ; preds = %20
  %29 = call i32 @H5_init_library()
  %30 = icmp slt i32 %29, 0
  %31 = xor i1 %30, true
  %32 = xor i1 %31, true
  %33 = zext i1 %32 to i32
  %34 = sext i32 %33 to i64
  %35 = call i64 @llvm.expect.i64(i64 %34, i64 0)
  %36 = icmp ne i64 %35, 0
  br i1 %36, label %37, label %56

37:                                               ; preds = %28
  br label %38

38:                                               ; preds = %37
  br label %39

39:                                               ; preds = %38
  br label %40

40:                                               ; preds = %39
  %41 = load i64, ptr @H5E_FUNC_g, align 8, !tbaa !3
  %42 = load i64, ptr @H5E_CANTINIT_g, align 8, !tbaa !3
  %43 = call i32 (ptr, ptr, i32, i64, i64, ptr, ...) @H5E_printf_stack(ptr noundef @.str, ptr noundef @__func__.H5ESinsert_request, i32 noundef 118, i64 noundef %41, i64 noundef %42, ptr noundef @.str.1)
  br label %44

44:                                               ; preds = %40
  br label %45

45:                                               ; preds = %44
  store i8 1, ptr %12, align 1, !tbaa !7
  %46 = load i8, ptr %12, align 1, !tbaa !7, !range !9, !noundef !10
  %47 = trunc i8 %46 to i1
  %48 = zext i1 %47 to i8
  store i8 %48, ptr %12, align 1, !tbaa !7
  br label %49

49:                                               ; preds = %45
  br label %50

50:                                               ; preds = %49
  br label %51

51:                                               ; preds = %50
  store i32 -1, ptr %9, align 4, !tbaa !17
  br label %224

52:                                               ; No predecessors!
  br label %53

53:                                               ; preds = %52
  br label %54

54:                                               ; preds = %53
  br label %55

55:                                               ; preds = %54
  br label %56

56:                                               ; preds = %55, %28
  br label %57

57:                                               ; preds = %56, %20
  %58 = load i8, ptr @H5ES_init_g, align 1, !tbaa !7, !range !9, !noundef !10
  %59 = trunc i8 %58 to i1
  br i1 %59, label %64, label %60

60:                                               ; preds = %57
  %61 = load i8, ptr @H5_libterm_g, align 1, !tbaa !7, !range !9, !noundef !10
  %62 = trunc i8 %61 to i1
  %63 = xor i1 %62, true
  br label %64

64:                                               ; preds = %60, %57
  %65 = phi i1 [ false, %57 ], [ %63, %60 ]
  %66 = xor i1 %65, true
  %67 = xor i1 %66, true
  %68 = zext i1 %67 to i32
  %69 = sext i32 %68 to i64
  %70 = call i64 @llvm.expect.i64(i64 %69, i64 0)
  %71 = icmp ne i64 %70, 0
  br i1 %71, label %72, label %95

72:                                               ; preds = %64
  store i8 1, ptr @H5ES_init_g, align 1, !tbaa !7
  %73 = call i32 @H5ES__init_package()
  %74 = icmp slt i32 %73, 0
  br i1 %74, label %75, label %94

75:                                               ; preds = %72
  store i8 0, ptr @H5ES_init_g, align 1, !tbaa !7
  br label %76

76:                                               ; preds = %75
  br label %77

77:                                               ; preds = %76
  br label %78

78:                                               ; preds = %77
  %79 = load i64, ptr @H5E_FUNC_g, align 8, !tbaa !3
  %80 = load i64, ptr @H5E_CANTINIT_g, align 8, !tbaa !3
  %81 = call i32 (ptr, ptr, i32, i64, i64, ptr, ...) @H5E_printf_stack(ptr noundef @.str, ptr noundef @__func__.H5ESinsert_request, i32 noundef 118, i64 noundef %79, i64 noundef %80, ptr noundef @.str.2)
  br label %82

82:                                               ; preds = %78
  br label %83

83:                                               ; preds = %82
  store i8 1, ptr %12, align 1, !tbaa !7
  %84 = load i8, ptr %12, align 1, !tbaa !7, !range !9, !noundef !10
  %85 = trunc i8 %84 to i1
  %86 = zext i1 %85 to i8
  store i8 %86, ptr %12, align 1, !tbaa !7
  br label %87

87:                                               ; preds = %83
  br label %88

88:                                               ; preds = %87
  br label %89

89:                                               ; preds = %88
  store i32 -1, ptr %9, align 4, !tbaa !17
  br label %224

90:                                               ; No predecessors!
  br label %91

91:                                               ; preds = %90
  br label %92

92:                                               ; preds = %91
  br label %93

93:                                               ; preds = %92
  br label %94

94:                                               ; preds = %93, %72
  br label %95

95:                                               ; preds = %94, %64
  br label %96

96:                                               ; preds = %95
  br label %97

97:                                               ; preds = %96
  br label %98

98:                                               ; preds = %97
  %99 = call i32 @H5CX_push(ptr noundef %10)
  %100 = icmp slt i32 %99, 0
  %101 = xor i1 %100, true
  %102 = xor i1 %101, true
  %103 = zext i1 %102 to i32
  %104 = sext i32 %103 to i64
  %105 = call i64 @llvm.expect.i64(i64 %104, i64 0)
  %106 = icmp ne i64 %105, 0
  br i1 %106, label %107, label %126

107:                                              ; preds = %98
  br label %108

108:                                              ; preds = %107
  br label %109

109:                                              ; preds = %108
  br label %110

110:                                              ; preds = %109
  %111 = load i64, ptr @H5E_FUNC_g, align 8, !tbaa !3
  %112 = load i64, ptr @H5E_CANTSET_g, align 8, !tbaa !3
  %113 = call i32 (ptr, ptr, i32, i64, i64, ptr, ...) @H5E_printf_stack(ptr noundef @.str, ptr noundef @__func__.H5ESinsert_request, i32 noundef 118, i64 noundef %111, i64 noundef %112, ptr noundef @.str.3)
  br label %114

114:                                              ; preds = %110
  br label %115

115:                                              ; preds = %114
  store i8 1, ptr %12, align 1, !tbaa !7
  %116 = load i8, ptr %12, align 1, !tbaa !7, !range !9, !noundef !10
  %117 = trunc i8 %116 to i1
  %118 = zext i1 %117 to i8
  store i8 %118, ptr %12, align 1, !tbaa !7
  br label %119

119:                                              ; preds = %115
  br label %120

120:                                              ; preds = %119
  br label %121

121:                                              ; preds = %120
  store i32 -1, ptr %9, align 4, !tbaa !17
  br label %224

122:                                              ; No predecessors!
  br label %123

123:                                              ; preds = %122
  br label %124

124:                                              ; preds = %123
  br label %125

125:                                              ; preds = %124
  br label %127

126:                                              ; preds = %98
  store i8 1, ptr %11, align 1, !tbaa !7
  br label %127

127:                                              ; preds = %126, %125
  br label %128

128:                                              ; preds = %127
  br label %129

129:                                              ; preds = %128
  %130 = call i32 @H5E_clear_stack()
  %131 = load i64, ptr %4, align 8, !tbaa !3
  %132 = call ptr @H5I_object_verify(i64 noundef %131, i32 noundef 16)
  store ptr %132, ptr %7, align 8, !tbaa !11
  %133 = icmp eq ptr null, %132
  br i1 %133, label %134, label %153

134:                                              ; preds = %129
  br label %135

135:                                              ; preds = %134
  br label %136

136:                                              ; preds = %135
  br label %137

137:                                              ; preds = %136
  %138 = load i64, ptr @H5E_ARGS_g, align 8, !tbaa !3
  %139 = load i64, ptr @H5E_BADTYPE_g, align 8, !tbaa !3
  %140 = call i32 (ptr, ptr, i32, i64, i64, ptr, ...) @H5E_printf_stack(ptr noundef @.str, ptr noundef @__func__.H5ESinsert_request, i32 noundef 122, i64 noundef %138, i64 noundef %139, ptr noundef @.str.6)
  br label %141

141:                                              ; preds = %137
  br label %142

142:                                              ; preds = %141
  store i8 1, ptr %12, align 1, !tbaa !7
  %143 = load i8, ptr %12, align 1, !tbaa !7, !range !9, !noundef !10
  %144 = trunc i8 %143 to i1
  %145 = zext i1 %144 to i8
  store i8 %145, ptr %12, align 1, !tbaa !7
  br label %146

146:                                              ; preds = %142
  br label %147

147:                                              ; preds = %146
  br label %148

148:                                              ; preds = %147
  store i32 -1, ptr %9, align 4, !tbaa !17
  br label %224

149:                                              ; No predecessors!
  br label %150

150:                                              ; preds = %149
  br label %151

151:                                              ; preds = %150
  br label %152

152:                                              ; preds = %151
  br label %153

153:                                              ; preds = %152, %129
  %154 = load ptr, ptr %6, align 8, !tbaa !14
  %155 = icmp eq ptr null, %154
  br i1 %155, label %156, label %175

156:                                              ; preds = %153
  br label %157

157:                                              ; preds = %156
  br label %158

158:                                              ; preds = %157
  br label %159

159:                                              ; preds = %158
  %160 = load i64, ptr @H5E_ARGS_g, align 8, !tbaa !3
  %161 = load i64, ptr @H5E_BADVALUE_g, align 8, !tbaa !3
  %162 = call i32 (ptr, ptr, i32, i64, i64, ptr, ...) @H5E_printf_stack(ptr noundef @.str, ptr noundef @__func__.H5ESinsert_request, i32 noundef 124, i64 noundef %160, i64 noundef %161, ptr noundef @.str.7)
  br label %163

163:                                              ; preds = %159
  br label %164

164:                                              ; preds = %163
  store i8 1, ptr %12, align 1, !tbaa !7
  %165 = load i8, ptr %12, align 1, !tbaa !7, !range !9, !noundef !10
  %166 = trunc i8 %165 to i1
  %167 = zext i1 %166 to i8
  store i8 %167, ptr %12, align 1, !tbaa !7
  br label %168

168:                                              ; preds = %164
  br label %169

169:                                              ; preds = %168
  br label %170

170:                                              ; preds = %169
  store i32 -1, ptr %9, align 4, !tbaa !17
  br label %224

171:                                              ; No predecessors!
  br label %172

172:                                              ; preds = %171
  br label %173

173:                                              ; preds = %172
  br label %174

174:                                              ; preds = %173
  br label %175

175:                                              ; preds = %174, %153
  %176 = load i64, ptr %5, align 8, !tbaa !3
  %177 = call ptr @H5I_object_verify(i64 noundef %176, i32 noundef 9)
  store ptr %177, ptr %8, align 8, !tbaa !15
  %178 = icmp eq ptr null, %177
  br i1 %178, label %179, label %198

179:                                              ; preds = %175
  br label %180

180:                                              ; preds = %179
  br label %181

181:                                              ; preds = %180
  br label %182

182:                                              ; preds = %181
  %183 = load i64, ptr @H5E_ARGS_g, align 8, !tbaa !3
  %184 = load i64, ptr @H5E_BADTYPE_g, align 8, !tbaa !3
  %185 = call i32 (ptr, ptr, i32, i64, i64, ptr, ...) @H5E_printf_stack(ptr noundef @.str, ptr noundef @__func__.H5ESinsert_request, i32 noundef 126, i64 noundef %183, i64 noundef %184, ptr noundef @.str.8)
  br label %186

186:                                              ; preds = %182
  br label %187

187:                                              ; preds = %186
  store i8 1, ptr %12, align 1, !tbaa !7
  %188 = load i8, ptr %12, align 1, !tbaa !7, !range !9, !noundef !10
  %189 = trunc i8 %188 to i1
  %190 = zext i1 %189 to i8
  store i8 %190, ptr %12, align 1, !tbaa !7
  br label %191

191:                                              ; preds = %187
  br label %192

192:                                              ; preds = %191
  br label %193

193:                                              ; preds = %192
  store i32 -1, ptr %9, align 4, !tbaa !17
  br label %224

194:                                              ; No predecessors!
  br label %195

195:                                              ; preds = %194
  br label %196

196:                                              ; preds = %195
  br label %197

197:                                              ; preds = %196
  br label %198

198:                                              ; preds = %197, %175
  %199 = load ptr, ptr %7, align 8, !tbaa !11
  %200 = load ptr, ptr %8, align 8, !tbaa !15
  %201 = load ptr, ptr %6, align 8, !tbaa !14
  %202 = call i32 @H5ES__insert_request(ptr noundef %199, ptr noundef %200, ptr noundef %201)
  %203 = icmp slt i32 %202, 0
  br i1 %203, label %204, label %223

204:                                              ; preds = %198
  br label %205

205:                                              ; preds = %204
  br label %206

206:                                              ; preds = %205
  br label %207

207:                                              ; preds = %206
  %208 = load i64, ptr @H5E_EVENTSET_g, align 8, !tbaa !3
  %209 = load i64, ptr @H5E_CANTINSERT_g, align 8, !tbaa !3
  %210 = call i32 (ptr, ptr, i32, i64, i64, ptr, ...) @H5E_printf_stack(ptr noundef @.str, ptr noundef @__func__.H5ESinsert_request, i32 noundef 130, i64 noundef %208, i64 noundef %209, ptr noundef @.str.9)
  br label %211

211:                                              ; preds = %207
  br label %212

212:                                              ; preds = %211
  store i8 1, ptr %12, align 1, !tbaa !7
  %213 = load i8, ptr %12, align 1, !tbaa !7, !range !9, !noundef !10
  %214 = trunc i8 %213 to i1
  %215 = zext i1 %214 to i8
  store i8 %215, ptr %12, align 1, !tbaa !7
  br label %216

216:                                              ; preds = %212
  br label %217

217:                                              ; preds = %216
  br label %218

218:                                              ; preds = %217
  store i32 -1, ptr %9, align 4, !tbaa !17
  br label %224

219:                                              ; No predecessors!
  br label %220

220:                                              ; preds = %219
  br label %221

221:                                              ; preds = %220
  br label %222

222:                                              ; preds = %221
  br label %223

223:                                              ; preds = %222, %198
  br label %224

224:                                              ; preds = %223, %218, %193, %170, %148, %121, %89, %51
  %225 = load i8, ptr %11, align 1, !tbaa !7, !range !9, !noundef !10
  %226 = trunc i8 %225 to i1
  %227 = xor i1 %226, true
  %228 = xor i1 %227, true
  %229 = zext i1 %228 to i32
  %230 = sext i32 %229 to i64
  %231 = call i64 @llvm.expect.i64(i64 %230, i64 1)
  %232 = icmp ne i64 %231, 0
  br i1 %232, label %233, label %235

233:                                              ; preds = %224
  %234 = call i32 @H5CX_pop(i1 noundef zeroext true)
  store i8 0, ptr %11, align 1, !tbaa !7
  br label %235

235:                                              ; preds = %233, %224
  %236 = load i8, ptr %12, align 1, !tbaa !7, !range !9, !noundef !10
  %237 = trunc i8 %236 to i1
  %238 = xor i1 %237, true
  %239 = xor i1 %238, true
  %240 = zext i1 %239 to i32
  %241 = sext i32 %240 to i64
  %242 = call i64 @llvm.expect.i64(i64 %241, i64 0)
  %243 = icmp ne i64 %242, 0
  br i1 %243, label %244, label %246

244:                                              ; preds = %235
  %245 = call i32 @H5E_dump_api_stack()
  br label %246

246:                                              ; preds = %244, %235
  %247 = load i32, ptr %9, align 4, !tbaa !17
  call void @llvm.lifetime.end.p0(i64 1, ptr %12) #5
  call void @llvm.lifetime.end.p0(i64 1, ptr %11) #5
  call void @llvm.lifetime.end.p0(i64 480, ptr %10) #5
  call void @llvm.lifetime.end.p0(i64 4, ptr %9) #5
  call void @llvm.lifetime.end.p0(i64 8, ptr %8) #5
  call void @llvm.lifetime.end.p0(i64 8, ptr %7) #5
  ret i32 %247
}